(None, ['.def', '_Z3sumPii;', '.scl', '2;', '.type', '32;', '.endef'])
(None, ['.globl', '_Z3sumPii'])
(None, ['.text'])
(None, ['.file', '"file_1.cpp"'])
('pushq', ['pushq', '%rbp'])
(None, ['.LFB2220:'])
(None, ['_Z3sumPii:'])
(None, ['.seh_proc', '_Z3sumPii'])
('subq', ['subq', '$40', '%rsp'])
(None, ['.seh_pushreg', '%rbx'])
('pushq', ['pushq', '%rbx'])
(None, ['.seh_pushreg', '%rbp'])
(None, ['.seh_endprologue'])
(None, ['.seh_setframe', '%rbp', '32'])
('leaq', ['leaq', '32(%rsp)', '%rbp'])
(None, ['.seh_stackalloc', '40'])
('jne', ['jne', '.L2'])
('cmpl', ['cmpl', '$0', '40(%rbp)'])
('movl', ['movl', '%edx', '40(%rbp)'])
('movq', ['movq', '%rcx', '32(%rbp)'])
('movq', ['movq', '32(%rbp)', '%rax'])
(None, ['.L2:'])
('jmp', ['jmp', '.L3'])
('movl', ['movl', '$0', '%eax'])
('movq', ['movq', '32(%rbp)', '%rax'])
('leal', ['leal', '-1(%rax)', '%edx'])
('movl', ['movl', '40(%rbp)', '%eax'])
('movl', ['movl', '(%rax)', '%ebx'])
('addl', ['addl', '%ebx', '%eax'])
('call', ['call', '_Z3sumPii'])
('movq', ['movq', '%rax', '%rcx'])
('addq', ['addq', '$4', '%rax'])
('popq', ['popq', '%rbp'])
('popq', ['popq', '%rbx'])
('addq', ['addq', '$40', '%rsp'])
(None, ['.L3:'])
(None, ['.globl', 'main'])
(None, ['.def', '__main;', '.scl', '2;', '.type', '32;', '.endef'])
(None, ['.seh_endproc'])
('ret', ['ret'])
(None, ['.LFB2221:'])
('main', ['main:'])
(None, ['.seh_proc', 'main'])
(None, ['.def', 'main;', '.scl', '2;', '.type', '32;', '.endef'])
(None, ['.seh_setframe', '%rbp', '0'])
('movq', ['movq', '%rsp', '%rbp'])
(None, ['.seh_pushreg', '%rbp'])
('pushq', ['pushq', '%rbp'])
('call', ['call', '__main'])
(None, ['.seh_endprologue'])
(None, ['.seh_stackalloc', '64'])
('subq', ['subq', '$64', '%rsp'])
('movl', ['movl', '$15', '-20(%rbp)'])
('movl', ['movl', '$4', '-24(%rbp)'])
('movl', ['movl', '$3', '-28(%rbp)'])
('movl', ['movl', '$12', '-32(%rbp)'])
('movq', ['movq', '%rax', '%rcx'])
('leaq', ['leaq', '-32(%rbp)', '%rax'])
('movl', ['movl', '-4(%rbp)', '%edx'])
('movl', ['movl', '$4', '-4(%rbp)'])
('movq', ['movq', '%rax', '%rcx'])
('movq', ['movq', '.refptr._ZSt4cout(%rip)', '%rax'])
('movl', ['movl', '%eax', '%edx'])
('call', ['call', '_Z3sumPii'])
('popq', ['popq', '%rbp'])
('addq', ['addq', '$64', '%rsp'])
('movl', ['movl', '$0', '%eax'])
('call', ['call', '_ZNSolsEi'])
(None, ['_ZNSt8__detail30__integer_to_chars_is_unsignedIjEE:'])
(None, ['.section', '.rdata', '"dr"'])
(None, ['.seh_endproc'])
('ret', ['ret'])
(None, ['_ZNSt8__detail30__integer_to_chars_is_unsignedIyEE:'])
(None, ['.byte', '1'])
(None, ['_ZNSt8__detail30__integer_to_chars_is_unsignedImEE:'])
(None, ['.byte', '1'])
(None, ['.section', '.rdata$.refptr._ZSt4cout', '"dr"'])
(None, ['.def', '_ZNSolsEi;', '.scl', '2;', '.type', '32;', '.endef'])
(None, ['.ident', '"GCC:', '(Rev6', 'Built', 'by', 'MSYS2', 'project)', '13.2.0"'])
(None, ['.byte', '1'])
(None, ['.quad', '_ZSt4cout'])
(None, ['.refptr._ZSt4cout:'])
(None, ['.linkonce', 'discard'])
(None, ['.globl', '.refptr._ZSt4cout'])
